target datalayout = "e-m:e-p270:32:32-p271:32:32-p272:64:64-i64:64-i128:128-f80:128-n8:16:32:64-S128"
target triple = "x86_64-pc-linux-gnu"

%struct.timeout_params = type { i32, i8, i8, ptr, i64, i64, i32 }

@alarm_enabled = internal global i32 0, align 4
@num_active_timeouts = internal global i32 0, align 4
@.str.1 = private unnamed_addr constant [10 x i8] c"timeout.c\00", align 1
@InterruptHoldoffCount = external global i32, align 4
@MyLatch = external global ptr, align 8
@signal_pending = internal global i32 0, align 4
@active_timeouts = internal global [23 x ptr] zeroinitializer, align 16
@.str.4 = private unnamed_addr constant [36 x i8] c"timeout index %d out of range 0..%d\00", align 1
@__func__.remove_timeout_index = private unnamed_addr constant [21 x i8] c"remove_timeout_index\00", align 1

; Function Attrs: nounwind uwtable
define internal void @remove_timeout_index(i32 noundef %0) #0 {
  %2 = alloca i32, align 4
  %3 = alloca i32, align 4
  store i32 %0, ptr %2, align 4
  call void @llvm.lifetime.start.p0(i64 4, ptr %3) #6
  %4 = load i32, ptr %2, align 4
  %5 = icmp slt i32 %4, 0
  br i1 %5, label %10, label %6

6:                                                ; preds = %1
  %7 = load i32, ptr %2, align 4
  %8 = load volatile i32, ptr @num_active_timeouts, align 4
  %9 = icmp sge i32 %7, %8
  br i1 %9, label %10, label %24

10:                                               ; preds = %6, %1
  br label %11

11:                                               ; preds = %10
  br i1 true, label %12, label %14

12:                                               ; preds = %11
  %13 = call zeroext i1 @errstart_cold(i32 noundef 22, ptr noundef null) #7
  br i1 %13, label %16, label %21

14:                                               ; preds = %11
  %15 = call zeroext i1 @errstart(i32 noundef 22, ptr noundef null)
  br i1 %15, label %16, label %21

16:                                               ; preds = %14, %12
  %17 = load i32, ptr %2, align 4
  %18 = load volatile i32, ptr @num_active_timeouts, align 4
  %19 = sub i32 %18, 1
  %20 = call i32 (ptr, ...) @errmsg_internal(ptr noundef @.str.4, i32 noundef %17, i32 noundef %19)
  call void @errfinish(ptr noundef @.str.1, i32 noundef 143, ptr noundef @__func__.remove_timeout_index)
  br label %21

21:                                               ; preds = %16, %14, %12
  unreachable

22:                                               ; No predecessors!
  br label %23

23:                                               ; preds = %22
  br label %24

24:                                               ; preds = %23, %6
  %25 = load i32, ptr %2, align 4
  %26 = sext i32 %25 to i64
  %27 = getelementptr inbounds [23 x ptr], ptr @active_timeouts, i64 0, i64 %26
  %28 = load volatile ptr, ptr %27, align 8
  %29 = getelementptr inbounds nuw %struct.timeout_params, ptr %28, i32 0, i32 1
  store volatile i8 0, ptr %29, align 4
  %30 = load i32, ptr %2, align 4
  %31 = add i32 %30, 1
  store i32 %31, ptr %3, align 4
  br label %32

32:                                               ; preds = %45, %24
  %33 = load i32, ptr %3, align 4
  %34 = load volatile i32, ptr @num_active_timeouts, align 4
  %35 = icmp slt i32 %33, %34
  br i1 %35, label %36, label %48

36:                                               ; preds = %32
  %37 = load i32, ptr %3, align 4
  %38 = sext i32 %37 to i64
  %39 = getelementptr inbounds [23 x ptr], ptr @active_timeouts, i64 0, i64 %38
  %40 = load volatile ptr, ptr %39, align 8
  %41 = load i32, ptr %3, align 4
  %42 = sub i32 %41, 1
  %43 = sext i32 %42 to i64
  %44 = getelementptr inbounds [23 x ptr], ptr @active_timeouts, i64 0, i64 %43
  store volatile ptr %40, ptr %44, align 8
  br label %45

45:                                               ; preds = %36
  %46 = load i32, ptr %3, align 4
  %47 = add i32 %46, 1
  store i32 %47, ptr %3, align 4
  br label %32, !llvm.loop !13

48:                                               ; preds = %32
  %49 = load volatile i32, ptr @num_active_timeouts, align 4
  %50 = add i32 %49, -1
  store volatile i32 %50, ptr @num_active_timeouts, align 4
  call void @llvm.lifetime.end.p0(i64 4, ptr %3) #6
  ret void
}

; Function Attrs: nounwind uwtable
define internal void @handle_sig_alarm(i32 noundef %0) #0 {
  %2 = alloca i32, align 4
  %3 = alloca i64, align 8
  %4 = alloca ptr, align 8
  %5 = alloca i64, align 8
  store i32 %0, ptr %2, align 4
  %6 = load volatile i32, ptr @InterruptHoldoffCount, align 4
  %7 = add i32 %6, 1
  store volatile i32 %7, ptr @InterruptHoldoffCount, align 4
  %8 = load ptr, ptr @MyLatch, align 8
  call void @SetLatch(ptr noundef %8)
  store volatile i32 0, ptr @signal_pending, align 4
  %9 = load volatile i32, ptr @alarm_enabled, align 4
  %10 = icmp ne i32 %9, 0
  br i1 %10, label %11, label %73

11:                                               ; preds = %1
  store volatile i32 0, ptr @alarm_enabled, align 4
  %12 = load volatile i32, ptr @num_active_timeouts, align 4
  %13 = icmp sgt i32 %12, 0
  br i1 %13, label %14, label %72

14:                                               ; preds = %11
  call void @llvm.lifetime.start.p0(i64 8, ptr %3) #6
  %15 = call i64 @GetCurrentTimestamp()
  store i64 %15, ptr %3, align 8
  br label %16

16:                                               ; preds = %68, %14
  %17 = load volatile i32, ptr @num_active_timeouts, align 4
  %18 = icmp sgt i32 %17, 0
  br i1 %18, label %19, label %25

19:                                               ; preds = %16
  %20 = load i64, ptr %3, align 8
  %21 = load volatile ptr, ptr @active_timeouts, align 16
  %22 = getelementptr inbounds nuw %struct.timeout_params, ptr %21, i32 0, i32 5
  %23 = load i64, ptr %22, align 8
  %24 = icmp sge i64 %20, %23
  br label %25

25:                                               ; preds = %19, %16
  %26 = phi i1 [ false, %16 ], [ %24, %19 ]
  br i1 %26, label %27, label %70

27:                                               ; preds = %25
  call void @llvm.lifetime.start.p0(i64 8, ptr %4) #6
  %28 = load volatile ptr, ptr @active_timeouts, align 16
  store ptr %28, ptr %4, align 8
  call void @remove_timeout_index(i32 noundef 0)
  %29 = load ptr, ptr %4, align 8
  %30 = getelementptr inbounds nuw %struct.timeout_params, ptr %29, i32 0, i32 2
  store volatile i8 1, ptr %30, align 1
  %31 = load ptr, ptr %4, align 8
  %32 = getelementptr inbounds nuw %struct.timeout_params, ptr %31, i32 0, i32 3
  %33 = load ptr, ptr %32, align 8
  call void %33()
  %34 = load ptr, ptr %4, align 8
  %35 = getelementptr inbounds nuw %struct.timeout_params, ptr %34, i32 0, i32 6
  %36 = load i32, ptr %35, align 8
  %37 = icmp sgt i32 %36, 0
  br i1 %37, label %38, label %68

38:                                               ; preds = %27
  call void @llvm.lifetime.start.p0(i64 8, ptr %5) #6
  %39 = load ptr, ptr %4, align 8
  %40 = getelementptr inbounds nuw %struct.timeout_params, ptr %39, i32 0, i32 5
  %41 = load i64, ptr %40, align 8
  %42 = load ptr, ptr %4, align 8
  %43 = getelementptr inbounds nuw %struct.timeout_params, ptr %42, i32 0, i32 6
  %44 = load i32, ptr %43, align 8
  %45 = sext i32 %44 to i64
  %46 = mul i64 %45, 1000
  %47 = add i64 %41, %46
  store i64 %47, ptr %5, align 8
  %48 = load i64, ptr %5, align 8
  %49 = load i64, ptr %3, align 8
  %50 = icmp slt i64 %48, %49
  br i1 %50, label %51, label %59

51:                                               ; preds = %38
  %52 = load i64, ptr %3, align 8
  %53 = load ptr, ptr %4, align 8
  %54 = getelementptr inbounds nuw %struct.timeout_params, ptr %53, i32 0, i32 6
  %55 = load i32, ptr %54, align 8
  %56 = sext i32 %55 to i64
  %57 = mul i64 %56, 1000
  %58 = add i64 %52, %57
  store i64 %58, ptr %5, align 8
  br label %59

59:                                               ; preds = %51, %38
  %60 = load ptr, ptr %4, align 8
  %61 = getelementptr inbounds nuw %struct.timeout_params, ptr %60, i32 0, i32 0
  %62 = load i32, ptr %61, align 8
  %63 = load i64, ptr %3, align 8
  %64 = load i64, ptr %5, align 8
  %65 = load ptr, ptr %4, align 8
  %66 = getelementptr inbounds nuw %struct.timeout_params, ptr %65, i32 0, i32 6
  %67 = load i32, ptr %66, align 8
  call void @enable_timeout(i32 noundef %62, i64 noundef %63, i64 noundef %64, i32 noundef %67)
  call void @llvm.lifetime.end.p0(i64 8, ptr %5) #6
  br label %68

68:                                               ; preds = %59, %27
  %69 = call i64 @GetCurrentTimestamp()
  store i64 %69, ptr %3, align 8
  call void @llvm.lifetime.end.p0(i64 8, ptr %4) #6
  br label %16, !llvm.loop !6

70:                                               ; preds = %25
  %71 = load i64, ptr %3, align 8
  call void @schedule_alarm(i64 noundef %71)
  call void @llvm.lifetime.end.p0(i64 8, ptr %3) #6
  br label %72

72:                                               ; preds = %70, %11
  br label %73

73:                                               ; preds = %72, %1
  br label %74

74:                                               ; preds = %73
  %75 = load volatile i32, ptr @InterruptHoldoffCount, align 4
  %76 = add i32 %75, -1
  store volatile i32 %76, ptr @InterruptHoldoffCount, align 4
  br label %77

77:                                               ; preds = %74
  ret void
}