; Function Attrs: nounwind uwtable
define internal void @handle_sig_alarm(i32 %0) #0 {
  %2 = load volatile i32, ptr @InterruptHoldoffCount, align 4
  %3 = add i32 %2, 1
  store volatile i32 %3, ptr @InterruptHoldoffCount, align 4
  %4 = load ptr, ptr @MyLatch, align 8
  tail call void @SetLatch(ptr noundef %4) #10
  store volatile i32 0, ptr @signal_pending, align 4
  %5 = load volatile i32, ptr @alarm_enabled, align 4
  %.not = icmp eq i32 %5, 0
  br i1 %.not, label %57, label %6

6:                                                ; preds = %1
  store volatile i32 0, ptr @alarm_enabled, align 4
  %7 = load volatile i32, ptr @num_active_timeouts, align 4
  %8 = icmp sgt i32 %7, 0
  br i1 %8, label %9, label %57

9:                                                ; preds = %6
  %10 = tail call i64 @GetCurrentTimestamp() #10
  %11 = load volatile i32, ptr @num_active_timeouts, align 4
  %12 = icmp sgt i32 %11, 0
  br i1 %12, label %.lr.ph, label %.critedge

.lr.ph:                                           ; preds = %9, %53
  %.01419 = phi i64 [ %54, %53 ], [ %10, %9 ]
  %13 = load volatile ptr, ptr @active_timeouts, align 16
  %14 = getelementptr inbounds nuw i8, ptr %13, i64 24
  %15 = load i64, ptr %14, align 8
  %.not17 = icmp slt i64 %.01419, %15
  br i1 %.not17, label %.critedge, label %16

16:                                               ; preds = %.lr.ph
  %17 = load volatile ptr, ptr @active_timeouts, align 16
  %18 = load volatile i32, ptr @num_active_timeouts, align 4
  %.not.i = icmp sgt i32 %18, 0
  br i1 %.not.i, label %24, label %19

19:                                               ; preds = %16
  %20 = tail call zeroext i1 @errstart_cold(i32 noundef 22, ptr noundef null) #11
  tail call void @llvm.assume(i1 %20)
  %21 = load volatile i32, ptr @num_active_timeouts, align 4
  %22 = add i32 %21, -1
  %23 = tail call i32 (ptr, ...) @errmsg_internal(ptr noundef nonnull @.str.4, i32 noundef 0, i32 noundef %22) #10
  tail call void @errfinish(ptr noundef nonnull @.str.1, i32 noundef 143, ptr noundef nonnull @__func__.remove_timeout_index) #10
  unreachable

24:                                               ; preds = %16
  %25 = load volatile ptr, ptr @active_timeouts, align 16
  %26 = getelementptr inbounds nuw i8, ptr %25, i64 4
  store volatile i8 0, ptr %26, align 4
  %27 = load volatile i32, ptr @num_active_timeouts, align 4
  %28 = icmp sgt i32 %27, 1
  br i1 %28, label %.lr.ph.i, label %remove_timeout_index.exit

.lr.ph.i:                                         ; preds = %24, %.lr.ph.i
  %indvars.iv.i = phi i64 [ %indvars.iv.next.i, %.lr.ph.i ], [ 1, %24 ]
  %.0.in11.i = phi i64 [ %indvars.iv.i, %.lr.ph.i ], [ 0, %24 ]
  %29 = getelementptr inbounds nuw [23 x ptr], ptr @active_timeouts, i64 0, i64 %indvars.iv.i
  %30 = load volatile ptr, ptr %29, align 8
  %sext = shl i64 %.0.in11.i, 32
  %31 = ashr exact i64 %sext, 32
  %32 = getelementptr inbounds [23 x ptr], ptr @active_timeouts, i64 0, i64 %31
  store volatile ptr %30, ptr %32, align 8
  %indvars.iv.next.i = add nuw nsw i64 %indvars.iv.i, 1
  %33 = load volatile i32, ptr @num_active_timeouts, align 4
  %34 = sext i32 %33 to i64
  %35 = icmp slt i64 %indvars.iv.next.i, %34
  br i1 %35, label %.lr.ph.i, label %remove_timeout_index.exit, !llvm.loop !6

remove_timeout_index.exit:                        ; preds = %.lr.ph.i, %24
  %36 = load volatile i32, ptr @num_active_timeouts, align 4
  %37 = add i32 %36, -1
  store volatile i32 %37, ptr @num_active_timeouts, align 4
  %38 = getelementptr inbounds nuw i8, ptr %17, i64 5
  store volatile i8 1, ptr %38, align 1
  %39 = getelementptr inbounds nuw i8, ptr %17, i64 8
  %40 = load ptr, ptr %39, align 8
  tail call void %40() #10
  %41 = getelementptr inbounds nuw i8, ptr %17, i64 32
  %42 = load i32, ptr %41, align 8
  %43 = icmp sgt i32 %42, 0
  br i1 %43, label %44, label %53

44:                                               ; preds = %remove_timeout_index.exit
  %45 = getelementptr inbounds nuw i8, ptr %17, i64 24
  %46 = load i64, ptr %45, align 8
  %47 = zext nneg i32 %42 to i64
  %48 = mul nuw nsw i64 %47, 1000
  %49 = add i64 %46, %48
  %50 = icmp slt i64 %49, %.01419
  %51 = add i64 %48, %.01419
  %spec.select = select i1 %50, i64 %51, i64 %49
  %52 = load i32, ptr %17, align 8
  tail call fastcc void @enable_timeout(i32 noundef %52, i64 noundef %.01419, i64 noundef %spec.select, i32 noundef %42)
  br label %53

53:                                               ; preds = %44, %remove_timeout_index.exit
  %54 = tail call i64 @GetCurrentTimestamp() #10
  %55 = load volatile i32, ptr @num_active_timeouts, align 4
  %56 = icmp sgt i32 %55, 0
  br i1 %56, label %.lr.ph, label %.critedge, !llvm.loop !7

.critedge:                                        ; preds = %.lr.ph, %53, %9
  %.014.lcssa = phi i64 [ %10, %9 ], [ %54, %53 ], [ %.01419, %.lr.ph ]
  tail call fastcc void @schedule_alarm(i64 noundef %.014.lcssa)
  br label %57

57:                                               ; preds = %1, %.critedge, %6
  %58 = load volatile i32, ptr @InterruptHoldoffCount, align 4
  %59 = add i32 %58, -1
  store volatile i32 %59, ptr @InterruptHoldoffCount, align 4
  ret void
}